; ModuleID = '2/805.c'
source_filename = "2/805.c"
target datalayout = "e-m:e-p270:32:32-p271:32:32-p272:64:64-i64:64-f80:128-n8:16:32:64-S128"
target triple = "x86_64-pc-linux-gnu"

@.str = private unnamed_addr constant [3 x i8] c"%d\00", align 1
@.str.1 = private unnamed_addr constant [4 x i8] c"%d \00", align 1
@.str.2 = private unnamed_addr constant [3 x i8] c"%s\00", align 1
@.str.3 = private unnamed_addr constant [4 x i8] c"%c\0A\00", align 1
@.str.4 = private unnamed_addr constant [4 x i8] c"%d\0A\00", align 1

; Function Attrs: noinline nounwind uwtable
define dso_local void @main() #0 {
  %1 = alloca [1000 x i32], align 16
  %2 = alloca [26 x i32], align 16
  %3 = alloca [1000 x i32], align 16
  %4 = alloca [1000 x [26 x i8]], align 16
  %5 = alloca i32, align 4
  %6 = alloca i32, align 4
  %7 = alloca i32, align 4
  %8 = alloca i32, align 4
  %9 = alloca i32, align 4
  %10 = alloca i8, align 1
  %11 = alloca i32, align 4
  %12 = alloca i32, align 4
  %13 = call i32 (i8*, ...) @__isoc99_scanf(i8* getelementptr inbounds ([3 x i8], [3 x i8]* @.str, i64 0, i64 0), i32* %5)
  store i32 0, i32* %6, align 4
  br label %14

14:                                               ; preds = %21, %0
  %15 = load i32, i32* %6, align 4
  %16 = icmp slt i32 %15, 26
  br i1 %16, label %17, label %24

17:                                               ; preds = %14
  %18 = load i32, i32* %6, align 4
  %19 = sext i32 %18 to i64
  %20 = getelementptr inbounds [26 x i32], [26 x i32]* %2, i64 0, i64 %19
  store i32 0, i32* %20, align 4
  br label %21

21:                                               ; preds = %17
  %22 = load i32, i32* %6, align 4
  %23 = add nsw i32 %22, 1
  store i32 %23, i32* %6, align 4
  br label %14

24:                                               ; preds = %14
  store i32 0, i32* %6, align 4
  br label %25

25:                                               ; preds = %74, %24
  %26 = load i32, i32* %6, align 4
  %27 = load i32, i32* %5, align 4
  %28 = icmp slt i32 %26, %27
  br i1 %28, label %29, label %77

29:                                               ; preds = %25
  %30 = load i32, i32* %6, align 4
  %31 = sext i32 %30 to i64
  %32 = getelementptr inbounds [1000 x i32], [1000 x i32]* %3, i64 0, i64 %31
  %33 = call i32 (i8*, ...) @__isoc99_scanf(i8* getelementptr inbounds ([4 x i8], [4 x i8]* @.str.1, i64 0, i64 0), i32* %32)
  %34 = load i32, i32* %6, align 4
  %35 = sext i32 %34 to i64
  %36 = getelementptr inbounds [1000 x [26 x i8]], [1000 x [26 x i8]]* %4, i64 0, i64 %35
  %37 = getelementptr inbounds [26 x i8], [26 x i8]* %36, i64 0, i64 0
  %38 = call i32 (i8*, ...) @__isoc99_scanf(i8* getelementptr inbounds ([3 x i8], [3 x i8]* @.str.2, i64 0, i64 0), i8* %37)
  %39 = load i32, i32* %6, align 4
  %40 = sext i32 %39 to i64
  %41 = getelementptr inbounds [1000 x [26 x i8]], [1000 x [26 x i8]]* %4, i64 0, i64 %40
  %42 = getelementptr inbounds [26 x i8], [26 x i8]* %41, i64 0, i64 0
  %43 = call i64 @strlen(i8* %42) #3
  %44 = trunc i64 %43 to i32
  %45 = load i32, i32* %6, align 4
  %46 = sext i32 %45 to i64
  %47 = getelementptr inbounds [1000 x i32], [1000 x i32]* %1, i64 0, i64 %46
  store i32 %44, i32* %47, align 4
  store i32 0, i32* %7, align 4
  br label %48

48:                                               ; preds = %70, %29
  %49 = load i32, i32* %7, align 4
  %50 = load i32, i32* %6, align 4
  %51 = sext i32 %50 to i64
  %52 = getelementptr inbounds [1000 x i32], [1000 x i32]* %1, i64 0, i64 %51
  %53 = load i32, i32* %52, align 4
  %54 = icmp slt i32 %49, %53
  br i1 %54, label %55, label %73

55:                                               ; preds = %48
  %56 = load i32, i32* %6, align 4
  %57 = sext i32 %56 to i64
  %58 = getelementptr inbounds [1000 x [26 x i8]], [1000 x [26 x i8]]* %4, i64 0, i64 %57
  %59 = load i32, i32* %7, align 4
  %60 = sext i32 %59 to i64
  %61 = getelementptr inbounds [26 x i8], [26 x i8]* %58, i64 0, i64 %60
  %62 = load i8, i8* %61, align 1
  %63 = sext i8 %62 to i32
  %64 = sub nsw i32 %63, 65
  store i32 %64, i32* %12, align 4
  %65 = load i32, i32* %12, align 4
  %66 = sext i32 %65 to i64
  %67 = getelementptr inbounds [26 x i32], [26 x i32]* %2, i64 0, i64 %66
  %68 = load i32, i32* %67, align 4
  %69 = add nsw i32 %68, 1
  store i32 %69, i32* %67, align 4
  br label %70

70:                                               ; preds = %55
  %71 = load i32, i32* %7, align 4
  %72 = add nsw i32 %71, 1
  store i32 %72, i32* %7, align 4
  br label %48

73:                                               ; preds = %48
  br label %74

74:                                               ; preds = %73
  %75 = load i32, i32* %6, align 4
  %76 = add nsw i32 %75, 1
  store i32 %76, i32* %6, align 4
  br label %25

77:                                               ; preds = %25
  %78 = getelementptr inbounds [26 x i32], [26 x i32]* %2, i64 0, i64 0
  %79 = load i32, i32* %78, align 16
  store i32 %79, i32* %8, align 4
  store i32 0, i32* %11, align 4
  store i32 1, i32* %6, align 4
  br label %80

80:                                               ; preds = %97, %77
  %81 = load i32, i32* %6, align 4
  %82 = icmp slt i32 %81, 26
  br i1 %82, label %83, label %100

83:                                               ; preds = %80
  %84 = load i32, i32* %6, align 4
  %85 = sext i32 %84 to i64
  %86 = getelementptr inbounds [26 x i32], [26 x i32]* %2, i64 0, i64 %85
  %87 = load i32, i32* %86, align 4
  %88 = load i32, i32* %8, align 4
  %89 = icmp sgt i32 %87, %88
  br i1 %89, label %90, label %96

90:                                               ; preds = %83
  %91 = load i32, i32* %6, align 4
  %92 = sext i32 %91 to i64
  %93 = getelementptr inbounds [26 x i32], [26 x i32]* %2, i64 0, i64 %92
  %94 = load i32, i32* %93, align 4
  store i32 %94, i32* %8, align 4
  %95 = load i32, i32* %6, align 4
  store i32 %95, i32* %11, align 4
  br label %96

96:                                               ; preds = %90, %83
  br label %97

97:                                               ; preds = %96
  %98 = load i32, i32* %6, align 4
  %99 = add nsw i32 %98, 1
  store i32 %99, i32* %6, align 4
  br label %80

100:                                              ; preds = %80
  %101 = load i32, i32* %11, align 4
  %102 = add nsw i32 %101, 65
  %103 = trunc i32 %102 to i8
  store i8 %103, i8* %10, align 1
  %104 = load i8, i8* %10, align 1
  %105 = sext i8 %104 to i32
  %106 = call i32 (i8*, ...) @printf(i8* getelementptr inbounds ([4 x i8], [4 x i8]* @.str.3, i64 0, i64 0), i32 %105)
  %107 = load i32, i32* %8, align 4
  %108 = call i32 (i8*, ...) @printf(i8* getelementptr inbounds ([4 x i8], [4 x i8]* @.str.4, i64 0, i64 0), i32 %107)
  store i32 0, i32* %9, align 4
  store i32 0, i32* %6, align 4
  br label %109

109:                                              ; preds = %157, %100
  %110 = load i32, i32* %6, align 4
  %111 = load i32, i32* %5, align 4
  %112 = icmp slt i32 %110, %111
  br i1 %112, label %113, label %160

113:                                              ; preds = %109
  store i32 0, i32* %7, align 4
  br label %114

114:                                              ; preds = %153, %113
  %115 = load i32, i32* %7, align 4
  %116 = load i32, i32* %6, align 4
  %117 = sext i32 %116 to i64
  %118 = getelementptr inbounds [1000 x i32], [1000 x i32]* %1, i64 0, i64 %117
  %119 = load i32, i32* %118, align 4
  %120 = icmp slt i32 %115, %119
  br i1 %120, label %121, label %156

121:                                              ; preds = %114
  %122 = load i32, i32* %6, align 4
  %123 = sext i32 %122 to i64
  %124 = getelementptr inbounds [1000 x [26 x i8]], [1000 x [26 x i8]]* %4, i64 0, i64 %123
  %125 = load i32, i32* %7, align 4
  %126 = sext i32 %125 to i64
  %127 = getelementptr inbounds [26 x i8], [26 x i8]* %124, i64 0, i64 %126
  %128 = load i8, i8* %127, align 1
  %129 = sext i8 %128 to i32
  %130 = load i8, i8* %10, align 1
  %131 = sext i8 %130 to i32
  %132 = icmp eq i32 %129, %131
  br i1 %132, label %133, label %152

133:                                              ; preds = %121
  %134 = load i32, i32* %9, align 4
  %135 = add nsw i32 %134, 1
  store i32 %135, i32* %9, align 4
  %136 = load i32, i32* %9, align 4
  %137 = load i32, i32* %8, align 4
  %138 = icmp slt i32 %136, %137
  br i1 %138, label %139, label %145

139:                                              ; preds = %133
  %140 = load i32, i32* %6, align 4
  %141 = sext i32 %140 to i64
  %142 = getelementptr inbounds [1000 x i32], [1000 x i32]* %3, i64 0, i64 %141
  %143 = load i32, i32* %142, align 4
  %144 = call i32 (i8*, ...) @printf(i8* getelementptr inbounds ([4 x i8], [4 x i8]* @.str.4, i64 0, i64 0), i32 %143)
  br label %151

145:                                              ; preds = %133
  %146 = load i32, i32* %6, align 4
  %147 = sext i32 %146 to i64
  %148 = getelementptr inbounds [1000 x i32], [1000 x i32]* %3, i64 0, i64 %147
  %149 = load i32, i32* %148, align 4
  %150 = call i32 (i8*, ...) @printf(i8* getelementptr inbounds ([3 x i8], [3 x i8]* @.str, i64 0, i64 0), i32 %149)
  br label %151

151:                                              ; preds = %145, %139
  br label %152

152:                                              ; preds = %151, %121
  br label %153

153:                                              ; preds = %152
  %154 = load i32, i32* %7, align 4
  %155 = add nsw i32 %154, 1
  store i32 %155, i32* %7, align 4
  br label %114

156:                                              ; preds = %114
  br label %157

157:                                              ; preds = %156
  %158 = load i32, i32* %6, align 4
  %159 = add nsw i32 %158, 1
  store i32 %159, i32* %6, align 4
  br label %109

160:                                              ; preds = %109
  ret void
}

declare dso_local i32 @__isoc99_scanf(i8*, ...) #1

; Function Attrs: nounwind readonly
declare dso_local i64 @strlen(i8*) #2

declare dso_local i32 @printf(i8*, ...) #1


!llvm.module.flags = !{!0}
!llvm.ident = !{!1}

!0 = !{i32 1, !"wchar_size", i32 4}
!1 = !{!"clang version 10.0.0-4ubuntu1 "}
